---
triple:          'arm64-apple-darwin'
binary-path:     main
relocations:
  - { offsetInCU: 0x905D, offset: 0x905D, size: 0x8, addend: 0x0, symName: __ZNSt3__124__put_character_sequenceB8ue170006IcNS_11char_traitsIcEEEERNS_13basic_ostreamIT_T0_EES7_PKS4_m, symObjAddr: 0x2C18, symBinAddr: 0x100006A3C, symSize: 0x164 }
  - { offsetInCU: 0x10FDB, offset: 0x10FDB, size: 0x8, addend: 0x0, symName: __ZNSt3__1rsB8ue170006IcNS_11char_traitsIcEENS_9allocatorIcEEEERNS_13basic_istreamIT_T0_EES9_RNS_12basic_stringIS6_S7_T1_EE, symObjAddr: 0x183C, symBinAddr: 0x100005660, symSize: 0x228 }
  - { offsetInCU: 0x113CA, offset: 0x113CA, size: 0x8, addend: 0x0, symName: __ZNSt3__17getlineB8ue170006IcNS_11char_traitsIcEENS_9allocatorIcEEEERNS_13basic_istreamIT_T0_EES9_RNS_12basic_stringIS6_S7_T1_EES6_, symObjAddr: 0x33A8, symBinAddr: 0x1000071CC, symSize: 0x188 }
  - { offsetInCU: 0x11A10, offset: 0x11A10, size: 0x8, addend: 0x0, symName: __ZNSt3__120__throw_length_errorB8ue170006EPKc, symObjAddr: 0x2B68, symBinAddr: 0x10000698C, symSize: 0x50 }
  - { offsetInCU: 0x11A4F, offset: 0x11A4F, size: 0x8, addend: 0x0, symName: __ZNSt3__116__pad_and_outputB8ue170006IcNS_11char_traitsIcEEEENS_19ostreambuf_iteratorIT_T0_EES6_PKS4_S8_S8_RNS_8ios_baseES4_, symObjAddr: 0x2D7C, symBinAddr: 0x100006BA0, symSize: 0x194 }
  - { offsetInCU: 0x128C5, offset: 0x128C5, size: 0x8, addend: 0x0, symName: __ZSt28__throw_bad_array_new_lengthB8ue170006v, symObjAddr: 0x2BDC, symBinAddr: 0x100006A00, symSize: 0x28 }
  - { offsetInCU: 0x160D4, offset: 0x160D4, size: 0x8, addend: 0x0, symName: __Z18FindRepresentationiii, symObjAddr: 0x0, symBinAddr: 0x100003E24, symSize: 0xFC }
  - { offsetInCU: 0x164E1, offset: 0x164E1, size: 0x8, addend: 0x0, symName: __ZNKSt3__16vectorIiNS_9allocatorIiEEE20__throw_length_errorB8ue170006Ev, symObjAddr: 0x2B54, symBinAddr: 0x100006978, symSize: 0x14 }
  - { offsetInCU: 0x1650B, offset: 0x1650B, size: 0x8, addend: 0x0, symName: __ZNSt3__120__throw_length_errorB8ue170006EPKc, symObjAddr: 0x2B68, symBinAddr: 0x10000698C, symSize: 0x50 }
  - { offsetInCU: 0x16BA8, offset: 0x16BA8, size: 0x8, addend: 0x0, symName: __Z24FindEstimationParametersRKNSt3__16vectorINS_4pairIdNS1_IddEEEENS_9allocatorIS3_EEEEdddi, symObjAddr: 0xFC, symBinAddr: 0x100003F20, symSize: 0x7B8 }
  - { offsetInCU: 0x18C8E, offset: 0x18C8E, size: 0x8, addend: 0x0, symName: __ZNSt3__16vectorINS0_IdNS_9allocatorIdEEEENS1_IS3_EEE21__push_back_slow_pathIRKS3_EEvOT_, symObjAddr: 0x2F10, symBinAddr: 0x100006D34, symSize: 0x220 }
  - { offsetInCU: 0x1976D, offset: 0x1976D, size: 0x8, addend: 0x0, symName: __ZNKSt3__16vectorIdNS_9allocatorIdEEE20__throw_length_errorB8ue170006Ev, symObjAddr: 0x2C04, symBinAddr: 0x100006A28, symSize: 0x14 }
  - { offsetInCU: 0x19797, offset: 0x19797, size: 0x8, addend: 0x0, symName: __ZNSt3__124__put_character_sequenceB8ue170006IcNS_11char_traitsIcEEEERNS_13basic_ostreamIT_T0_EES7_PKS4_m, symObjAddr: 0x2C18, symBinAddr: 0x100006A3C, symSize: 0x164 }
  - { offsetInCU: 0x197A2, offset: 0x197A2, size: 0x8, addend: 0x0, symName: __ZNSt3__16vectorINS0_IdNS_9allocatorIdEEEENS1_IS3_EEED1B8ue170006Ev, symObjAddr: 0x8B4, symBinAddr: 0x1000046D8, symSize: 0x74 }
  - { offsetInCU: 0x19E5B, offset: 0x19E5B, size: 0x8, addend: 0x0, symName: __Z36EstimateExtrapolatedYieldRatioFromYQdRKNSt3__16vectorINS0_IdNS_9allocatorIdEEEENS1_IS3_EEEEi, symObjAddr: 0x928, symBinAddr: 0x10000474C, symSize: 0x4F0 }
  - { offsetInCU: 0x1A7F9, offset: 0x1A7F9, size: 0x8, addend: 0x0, symName: __Z18CombinedPredictionRKNSt3__16vectorINS_5tupleIJdddEEENS_9allocatorIS2_EEEE, symObjAddr: 0xE18, symBinAddr: 0x100004C3C, symSize: 0x88 }
  - { offsetInCU: 0x1A832, offset: 0x1A832, size: 0x8, addend: 0x0, symName: __Z18CombinedPredictionRKNSt3__16vectorINS_5tupleIJdddEEENS_9allocatorIS2_EEEE, symObjAddr: 0xE18, symBinAddr: 0x100004C3C, symSize: 0x88 }
  - { offsetInCU: 0x1A85F, offset: 0x1A85F, size: 0x8, addend: 0x0, symName: __Z18CombinedPredictionRKNSt3__16vectorINS_5tupleIJdddEEENS_9allocatorIS2_EEEE, symObjAddr: 0xE18, symBinAddr: 0x100004C3C, symSize: 0x88 }
  - { offsetInCU: 0x1B225, offset: 0x1B225, size: 0x8, addend: 0x0, symName: __Z15PrintUpdateTextRKNSt3__112basic_stringIcNS_11char_traitsIcEENS_9allocatorIcEEEEm, symObjAddr: 0xEA0, symBinAddr: 0x100004CC4, symSize: 0x86C }
  - { offsetInCU: 0x1E176, offset: 0x1E176, size: 0x8, addend: 0x0, symName: __ZNSt3__119basic_istringstreamIcNS_11char_traitsIcEENS_9allocatorIcEEEC1B8ue170006ERKNS_12basic_stringIcS2_S4_EEj, symObjAddr: 0x170C, symBinAddr: 0x100005530, symSize: 0x130 }
  - { offsetInCU: 0x1E373, offset: 0x1E373, size: 0x8, addend: 0x0, symName: __ZNSt3__16vectorINS_12basic_stringIcNS_11char_traitsIcEENS_9allocatorIcEEEENS4_IS6_EEE21__push_back_slow_pathIS6_EEvOT_, symObjAddr: 0x31C4, symBinAddr: 0x100006FE8, symSize: 0x16C }
  - { offsetInCU: 0x1E9A9, offset: 0x1E9A9, size: 0x8, addend: 0x0, symName: __ZNSt3__114__split_bufferINS_12basic_stringIcNS_11char_traitsIcEENS_9allocatorIcEEEERNS4_IS6_EEED1Ev, symObjAddr: 0x3330, symBinAddr: 0x100007154, symSize: 0x64 }
  - { offsetInCU: 0x1E9BD, offset: 0x1E9BD, size: 0x8, addend: 0x0, symName: __ZNKSt3__112basic_stringIcNS_11char_traitsIcEENS_9allocatorIcEEE20__throw_length_errorB8ue170006Ev, symObjAddr: 0x31B0, symBinAddr: 0x100006FD4, symSize: 0x14 }
  - { offsetInCU: 0x1E9E7, offset: 0x1E9E7, size: 0x8, addend: 0x0, symName: __ZNSt3__16vectorINS_12basic_stringIcNS_11char_traitsIcEENS_9allocatorIcEEEENS4_IS6_EEE21__push_back_slow_pathIS6_EEvOT_, symObjAddr: 0x31C4, symBinAddr: 0x100006FE8, symSize: 0x16C }
  - { offsetInCU: 0x1E9F2, offset: 0x1E9F2, size: 0x8, addend: 0x0, symName: __ZNSt3__16vectorINS_12basic_stringIcNS_11char_traitsIcEENS_9allocatorIcEEEENS4_IS6_EEED1B8ue170006Ev, symObjAddr: 0x1AE8, symBinAddr: 0x10000590C, symSize: 0x74 }
  - { offsetInCU: 0x1ECA3, offset: 0x1ECA3, size: 0x8, addend: 0x0, symName: __ZNSt3__119basic_istringstreamIcNS_11char_traitsIcEENS_9allocatorIcEEED1Ev, symObjAddr: 0x1B5C, symBinAddr: 0x100005980, symSize: 0x84 }
  - { offsetInCU: 0x1EE51, offset: 0x1EE51, size: 0x8, addend: 0x0, symName: __ZNSt3__119basic_ostringstreamIcNS_11char_traitsIcEENS_9allocatorIcEEED1Ev, symObjAddr: 0x1A64, symBinAddr: 0x100005888, symSize: 0x84 }
  - { offsetInCU: 0x1F453, offset: 0x1F453, size: 0x8, addend: 0x0, symName: __Z14SplitIntoLinesRKNSt3__112basic_stringIcNS_11char_traitsIcEENS_9allocatorIcEEEE, symObjAddr: 0x1BE0, symBinAddr: 0x100005A04, symSize: 0x230 }
  - { offsetInCU: 0x1FEA2, offset: 0x1FEA2, size: 0x8, addend: 0x0, symName: __ZNSt3__16vectorINS_12basic_stringIcNS_11char_traitsIcEENS_9allocatorIcEEEENS4_IS6_EEE21__push_back_slow_pathIRKS6_EEvOT_, symObjAddr: 0x3530, symBinAddr: 0x100007354, symSize: 0x228 }
  - { offsetInCU: 0x20997, offset: 0x20997, size: 0x8, addend: 0x0, symName: __Z17PrintCenteredTextRKNSt3__112basic_stringIcNS_11char_traitsIcEENS_9allocatorIcEEEEm, symObjAddr: 0x1E10, symBinAddr: 0x100005C34, symSize: 0x1F8 }
  - { offsetInCU: 0x21381, offset: 0x21381, size: 0x8, addend: 0x0, symName: __Z16PrintProgramInfov, symObjAddr: 0x2008, symBinAddr: 0x100005E2C, symSize: 0x174 }
  - { offsetInCU: 0x21B2F, offset: 0x21B2F, size: 0x8, addend: 0x0, symName: __Z17PrintSectionTitleRKNSt3__112basic_stringIcNS_11char_traitsIcEENS_9allocatorIcEEEE, symObjAddr: 0x217C, symBinAddr: 0x100005FA0, symSize: 0x84 }
  - { offsetInCU: 0x2242E, offset: 0x2242E, size: 0x8, addend: 0x0, symName: _main, symObjAddr: 0x2200, symBinAddr: 0x100006024, symSize: 0x948 }
  - { offsetInCU: 0x258B9, offset: 0x258B9, size: 0x8, addend: 0x0, symName: __ZNKSt3__16vectorINS_5tupleIJdddEEENS_9allocatorIS2_EEE20__throw_length_errorB8ue170006Ev, symObjAddr: 0x3758, symBinAddr: 0x10000757C, symSize: 0x14 }
  - { offsetInCU: 0x258EE, offset: 0x258EE, size: 0x8, addend: 0x0, symName: __ZNSt12length_errorC1B8ue170006EPKc, symObjAddr: 0x2BB8, symBinAddr: 0x1000069DC, symSize: 0x24 }
  - { offsetInCU: 0x25DD5, offset: 0x25DD5, size: 0x8, addend: 0x0, symName: __ZNKSt3__16vectorINS0_IdNS_9allocatorIdEEEENS1_IS3_EEE20__throw_length_errorB8ue170006Ev, symObjAddr: 0x319C, symBinAddr: 0x100006FC0, symSize: 0x14 }
  - { offsetInCU: 0x25DFF, offset: 0x25DFF, size: 0x8, addend: 0x0, symName: __ZNKSt3__112basic_stringIcNS_11char_traitsIcEENS_9allocatorIcEEE20__throw_length_errorB8ue170006Ev, symObjAddr: 0x31B0, symBinAddr: 0x100006FD4, symSize: 0x14 }
  - { offsetInCU: 0x25E0A, offset: 0x25E0A, size: 0x8, addend: 0x0, symName: __ZNSt3__114__split_bufferINS_6vectorIdNS_9allocatorIdEEEERNS2_IS4_EEED1Ev, symObjAddr: 0x3130, symBinAddr: 0x100006F54, symSize: 0x6C }
  - { offsetInCU: 0x263AD, offset: 0x263AD, size: 0x8, addend: 0x0, symName: __ZNKSt3__16vectorINS_12basic_stringIcNS_11char_traitsIcEENS_9allocatorIcEEEENS4_IS6_EEE20__throw_length_errorB8ue170006Ev, symObjAddr: 0x3394, symBinAddr: 0x1000071B8, symSize: 0x14 }
  - { offsetInCU: 0x263D7, offset: 0x263D7, size: 0x8, addend: 0x0, symName: __ZNSt3__17getlineB8ue170006IcNS_11char_traitsIcEENS_9allocatorIcEEEERNS_13basic_istreamIT_T0_EES9_RNS_12basic_stringIS6_S7_T1_EES6_, symObjAddr: 0x33A8, symBinAddr: 0x1000071CC, symSize: 0x188 }
  - { offsetInCU: 0x263E2, offset: 0x263E2, size: 0x8, addend: 0x0, symName: __ZNSt3__114__split_bufferINS_12basic_stringIcNS_11char_traitsIcEENS_9allocatorIcEEEERNS4_IS6_EEED1Ev, symObjAddr: 0x3330, symBinAddr: 0x100007154, symSize: 0x64 }
...
